; Function Attrs: mustprogress uwtable
define noundef i32 @_ZN6google8protobuf2io15FileInputStream22CopyingFileInputStream4ReadEPvi(ptr nocapture noundef nonnull align 8 dereferenceable(24) %this, ptr nocapture noundef %buffer, i32 noundef %size) unnamed_addr #3 align 2 personality ptr @__gxx_personality_v0 {
entry:
  %ref.tmp3 = alloca %"class.absl::lts_20230802::log_internal::LogMessageFatal", align 8
  %is_closed_ = getelementptr inbounds i8, ptr %this, i64 13
  %0 = load i8, ptr %is_closed_, align 1
  %1 = and i8 %0, 1
  %tobool.not.not = icmp eq i8 %1, 0
  br i1 %tobool.not.not, label %do.body.preheader, label %cond.false

do.body.preheader:                                ; preds = %entry
  %file_ = getelementptr inbounds i8, ptr %this, i64 8
  %conv = sext i32 %size to i64
  br label %do.body

cond.false:                                       ; preds = %entry
  call void @_ZN4absl12lts_2023080212log_internal15LogMessageFatalC1EPKciSt17basic_string_viewIcSt11char_traitsIcEE(ptr noundef nonnull align 8 dereferenceable(16) %ref.tmp3, ptr noundef nonnull @.str, i32 noundef 115, i64 11, ptr nonnull @.str.2) #17
  call void @_ZN4absl12lts_2023080212log_internal15LogMessageFatalD1Ev(ptr noundef nonnull align 8 dereferenceable(16) %ref.tmp3) #18
  unreachable

do.body:                                          ; preds = %do.body.preheader, %land.rhs
  %2 = load i32, ptr %file_, align 8
  %call8 = tail call i64 @read(i32 noundef %2, ptr noundef %buffer, i64 noundef %conv)
  %conv9 = trunc i64 %call8 to i32
  %cmp = icmp slt i32 %conv9, 0
  br i1 %cmp, label %land.rhs, label %if.end

land.rhs:                                         ; preds = %do.body
  %call10 = tail call ptr @__errno_location() #19
  %3 = load i32, ptr %call10, align 4
  %cmp11 = icmp eq i32 %3, 4
  br i1 %cmp11, label %do.body, label %if.then, !llvm.loop !6

if.then:                                          ; preds = %land.rhs
  %errno_ = getelementptr inbounds i8, ptr %this, i64 16
  store i32 %3, ptr %errno_, align 8
  br label %if.end

if.end:                                           ; preds = %do.body, %if.then
  ret i32 %conv9
}